; Function Attrs: nounwind sspstrong uwtable
define dso_local ptr @aio_get_thread_pool(ptr noundef %ctx) local_unnamed_addr #0 {
entry:
  %thread_pool = getelementptr inbounds nuw i8, ptr %ctx, i64 240
  %0 = load ptr, ptr %thread_pool, align 8
  %tobool.not = icmp eq ptr %0, null
  br i1 %tobool.not, label %if.then, label %if.end

if.then:                                          ; preds = %entry
  %call = tail call ptr @thread_pool_new(ptr noundef nonnull %ctx) #13
  store ptr %call, ptr %thread_pool, align 8
  br label %if.end

if.end:                                           ; preds = %if.then, %entry
  %1 = phi ptr [ %call, %if.then ], [ %0, %entry ]
  ret ptr %1
}